; Function Attrs: mustprogress uwtable
define void @_ZN7rocksdb8LogFlushEPNS_6LoggerE(ptr noundef %0) local_unnamed_addr #4 {
  %.not = icmp eq ptr %0, null
  br i1 %.not, label %6, label %2

2:                                                ; preds = %1
  %3 = load ptr, ptr %0, align 8, !tbaa !18
  %4 = getelementptr inbounds nuw i8, ptr %3, i64 56
  %5 = load ptr, ptr %4, align 8
  tail call void %5(ptr noundef nonnull align 8 dereferenceable(10) %0)
  br label %6

6:                                                ; preds = %2, %1
  ret void
}